target datalayout = "e-m:e-p270:32:32-p271:32:32-p272:64:64-i64:64-i128:128-f80:128-n8:16:32:64-S128"
target triple = "x86_64-pc-linux-gnu"

%struct.TupleTableSlotOps = type { i64, ptr, ptr, ptr, ptr, ptr, ptr, ptr, ptr, ptr, ptr, ptr, ptr }
%struct.WindowAgg = type { %struct.Plan, i32, i32, ptr, ptr, ptr, i32, ptr, ptr, ptr, i32, ptr, ptr, ptr, ptr, i32, i32, i32, i8, i8, i8 }
%struct.Plan = type { i32, i32, double, double, double, i32, i8, i8, i8, i32, ptr, ptr, ptr, ptr, ptr, ptr, ptr }
%struct.WindowAggState = type { %struct.ScanState, ptr, i32, i32, ptr, ptr, ptr, ptr, ptr, i32, i32, i32, i32, i64, i64, i64, i64, ptr, i64, i64, i32, i32, ptr, ptr, i64, i64, %struct.FmgrInfo, %struct.FmgrInfo, i32, i8, i8, i8, i8, ptr, i64, i64, i64, i64, i64, ptr, ptr, ptr, ptr, i8, i8, i8, i8, i8, i8, i8, ptr, ptr, ptr, ptr, ptr, ptr }
%struct.ScanState = type { %struct.PlanState, ptr, ptr, ptr }
%struct.PlanState = type { i32, ptr, ptr, ptr, ptr, ptr, ptr, ptr, ptr, ptr, ptr, ptr, ptr, ptr, ptr, ptr, ptr, ptr, i8, ptr, ptr, ptr, ptr, ptr, i8, i8, i8, i8, i8, i8, i8, i8 }
%struct.FmgrInfo = type { ptr, i32, i16, i8, i8, i8, ptr, ptr, ptr }
%struct.TupleTableSlot = type { i32, i16, i16, ptr, ptr, ptr, ptr, ptr, %struct.ItemPointerData, i32 }
%struct.ItemPointerData = type { %struct.BlockIdData, i16 }
%struct.BlockIdData = type { i16, i16 }
%struct.ExprContext = type { i32, ptr, ptr, ptr, ptr, ptr, ptr, ptr, ptr, ptr, i64, i8, i64, i8, ptr, ptr, ptr, ptr }
%struct.ExprState = type { i32, i8, i8, i64, ptr, ptr, ptr, ptr, ptr, i32, i32, ptr, ptr, ptr, ptr, ptr, ptr, ptr }

@CurrentMemoryContext = external global ptr, align 8

; Function Attrs: inlinehint nounwind uwtable
define internal zeroext i1 @DatumGetBool(i64 noundef %0) #2 {
  %2 = alloca i64, align 8
  store i64 %0, ptr %2, align 8
  %3 = load i64, ptr %2, align 8
  %4 = icmp ne i64 %3, 0
  ret i1 %4
}

; Function Attrs: inlinehint nounwind uwtable
define internal i64 @ExecEvalExprSwitchContext(ptr noundef %0, ptr noundef %1, ptr noundef %2) #2 {
  %4 = alloca ptr, align 8
  %5 = alloca ptr, align 8
  %6 = alloca ptr, align 8
  %7 = alloca i64, align 8
  %8 = alloca ptr, align 8
  store ptr %0, ptr %4, align 8
  store ptr %1, ptr %5, align 8
  store ptr %2, ptr %6, align 8
  call void @llvm.lifetime.start.p0(i64 8, ptr %7) #8
  call void @llvm.lifetime.start.p0(i64 8, ptr %8) #8
  %9 = load ptr, ptr %5, align 8
  %10 = getelementptr inbounds nuw %struct.ExprContext, ptr %9, i32 0, i32 5
  %11 = load ptr, ptr %10, align 8
  %12 = call ptr @MemoryContextSwitchTo(ptr noundef %11)
  store ptr %12, ptr %8, align 8
  %13 = load ptr, ptr %4, align 8
  %14 = getelementptr inbounds nuw %struct.ExprState, ptr %13, i32 0, i32 6
  %15 = load ptr, ptr %14, align 8
  %16 = load ptr, ptr %4, align 8
  %17 = load ptr, ptr %5, align 8
  %18 = load ptr, ptr %6, align 8
  %19 = call i64 %15(ptr noundef %16, ptr noundef %17, ptr noundef %18)
  store i64 %19, ptr %7, align 8
  %20 = load ptr, ptr %8, align 8
  %21 = call ptr @MemoryContextSwitchTo(ptr noundef %20)
  %22 = load i64, ptr %7, align 8
  call void @llvm.lifetime.end.p0(i64 8, ptr %8) #8
  call void @llvm.lifetime.end.p0(i64 8, ptr %7) #8
  ret i64 %22
}

; Function Attrs: inlinehint nounwind uwtable
define internal zeroext i1 @ExecQual(ptr noundef %0, ptr noundef %1) #2 {
  %3 = alloca i1, align 1
  %4 = alloca ptr, align 8
  %5 = alloca ptr, align 8
  %6 = alloca i64, align 8
  %7 = alloca i8, align 1
  %8 = alloca i32, align 4
  store ptr %0, ptr %4, align 8
  store ptr %1, ptr %5, align 8
  call void @llvm.lifetime.start.p0(i64 8, ptr %6) #8
  call void @llvm.lifetime.start.p0(i64 1, ptr %7) #8
  %9 = load ptr, ptr %4, align 8
  %10 = icmp eq ptr %9, null
  br i1 %10, label %11, label %12

11:                                               ; preds = %2
  store i1 true, ptr %3, align 1
  store i32 1, ptr %8, align 4
  br label %18

12:                                               ; preds = %2
  %13 = load ptr, ptr %4, align 8
  %14 = load ptr, ptr %5, align 8
  %15 = call i64 @ExecEvalExprSwitchContext(ptr noundef %13, ptr noundef %14, ptr noundef %7)
  store i64 %15, ptr %6, align 8
  %16 = load i64, ptr %6, align 8
  %17 = call zeroext i1 @DatumGetBool(i64 noundef %16)
  store i1 %17, ptr %3, align 1
  store i32 1, ptr %8, align 4
  br label %18

18:                                               ; preds = %12, %11
  call void @llvm.lifetime.end.p0(i64 1, ptr %7) #8
  call void @llvm.lifetime.end.p0(i64 8, ptr %6) #8
  %19 = load i1, ptr %3, align 1
  ret i1 %19
}

; Function Attrs: inlinehint nounwind uwtable
define internal ptr @ExecCopySlot(ptr noundef %0, ptr noundef %1) #2 {
  %3 = alloca ptr, align 8
  %4 = alloca ptr, align 8
  store ptr %0, ptr %3, align 8
  store ptr %1, ptr %4, align 8
  %5 = load ptr, ptr %3, align 8
  %6 = getelementptr inbounds nuw %struct.TupleTableSlot, ptr %5, i32 0, i32 3
  %7 = load ptr, ptr %6, align 8
  %8 = getelementptr inbounds nuw %struct.TupleTableSlotOps, ptr %7, i32 0, i32 8
  %9 = load ptr, ptr %8, align 8
  %10 = load ptr, ptr %3, align 8
  %11 = load ptr, ptr %4, align 8
  call void %9(ptr noundef %10, ptr noundef %11)
  %12 = load ptr, ptr %3, align 8
  ret ptr %12
}

; Function Attrs: inlinehint nounwind uwtable
define internal zeroext i1 @ExecQualAndReset(ptr noundef %0, ptr noundef %1) #2 {
  %3 = alloca ptr, align 8
  %4 = alloca ptr, align 8
  %5 = alloca i8, align 1
  store ptr %0, ptr %3, align 8
  store ptr %1, ptr %4, align 8
  call void @llvm.lifetime.start.p0(i64 1, ptr %5) #8
  %6 = load ptr, ptr %3, align 8
  %7 = load ptr, ptr %4, align 8
  %8 = call zeroext i1 @ExecQual(ptr noundef %6, ptr noundef %7)
  %9 = zext i1 %8 to i8
  store i8 %9, ptr %5, align 1
  %10 = load ptr, ptr %4, align 8
  %11 = getelementptr inbounds nuw %struct.ExprContext, ptr %10, i32 0, i32 5
  %12 = load ptr, ptr %11, align 8
  call void @MemoryContextReset(ptr noundef %12)
  %13 = load i8, ptr %5, align 1, !range !4, !noundef !5
  %14 = trunc i8 %13 to i1
  call void @llvm.lifetime.end.p0(i64 1, ptr %5) #8
  ret i1 %14
}

; Function Attrs: inlinehint nounwind uwtable
define internal ptr @ExecProcNode(ptr noundef %0) #2 {
  %2 = alloca ptr, align 8
  store ptr %0, ptr %2, align 8
  %3 = load ptr, ptr %2, align 8
  %4 = getelementptr inbounds nuw %struct.PlanState, ptr %3, i32 0, i32 13
  %5 = load ptr, ptr %4, align 8
  %6 = icmp ne ptr %5, null
  br i1 %6, label %7, label %9

7:                                                ; preds = %1
  %8 = load ptr, ptr %2, align 8
  call void @ExecReScan(ptr noundef %8)
  br label %9

9:                                                ; preds = %7, %1
  %10 = load ptr, ptr %2, align 8
  %11 = getelementptr inbounds nuw %struct.PlanState, ptr %10, i32 0, i32 3
  %12 = load ptr, ptr %11, align 8
  %13 = load ptr, ptr %2, align 8
  %14 = call ptr %12(ptr noundef %13)
  ret ptr %14
}

; Function Attrs: inlinehint nounwind uwtable
define internal ptr @MemoryContextSwitchTo(ptr noundef %0) #2 {
  %2 = alloca ptr, align 8
  %3 = alloca ptr, align 8
  store ptr %0, ptr %2, align 8
  call void @llvm.lifetime.start.p0(i64 8, ptr %3) #8
  %4 = load ptr, ptr @CurrentMemoryContext, align 8
  store ptr %4, ptr %3, align 8
  %5 = load ptr, ptr %2, align 8
  store ptr %5, ptr @CurrentMemoryContext, align 8
  %6 = load ptr, ptr %3, align 8
  call void @llvm.lifetime.end.p0(i64 8, ptr %3) #8
  ret ptr %6
}

; Function Attrs: nounwind uwtable
define internal void @spool_tuples(ptr noundef %0, i64 noundef %1) #0 {
  %3 = alloca ptr, align 8
  %4 = alloca i64, align 8
  %5 = alloca ptr, align 8
  %6 = alloca ptr, align 8
  %7 = alloca ptr, align 8
  %8 = alloca ptr, align 8
  %9 = alloca i32, align 4
  %10 = alloca ptr, align 8
  store ptr %0, ptr %3, align 8
  store i64 %1, ptr %4, align 8
  call void @llvm.lifetime.start.p0(i64 8, ptr %5) #8
  %11 = load ptr, ptr %3, align 8
  %12 = getelementptr inbounds nuw %struct.WindowAggState, ptr %11, i32 0, i32 0
  %13 = getelementptr inbounds nuw %struct.ScanState, ptr %12, i32 0, i32 0
  %14 = getelementptr inbounds nuw %struct.PlanState, ptr %13, i32 0, i32 1
  %15 = load ptr, ptr %14, align 8
  store ptr %15, ptr %5, align 8
  call void @llvm.lifetime.start.p0(i64 8, ptr %6) #8
  call void @llvm.lifetime.start.p0(i64 8, ptr %7) #8
  call void @llvm.lifetime.start.p0(i64 8, ptr %8) #8
  %16 = load ptr, ptr %3, align 8
  %17 = getelementptr inbounds nuw %struct.WindowAggState, ptr %16, i32 0, i32 8
  %18 = load ptr, ptr %17, align 8
  %19 = icmp ne ptr %18, null
  br i1 %19, label %21, label %20

20:                                               ; preds = %2
  store i32 1, ptr %9, align 4
  br label %134

21:                                               ; preds = %2
  %22 = load ptr, ptr %3, align 8
  %23 = getelementptr inbounds nuw %struct.WindowAggState, ptr %22, i32 0, i32 44
  %24 = load i8, ptr %23, align 1, !range !4, !noundef !5
  %25 = trunc i8 %24 to i1
  br i1 %25, label %26, label %27

26:                                               ; preds = %21
  store i32 1, ptr %9, align 4
  br label %134

27:                                               ; preds = %21
  %28 = load ptr, ptr %3, align 8
  %29 = getelementptr inbounds nuw %struct.WindowAggState, ptr %28, i32 0, i32 20
  %30 = load i32, ptr %29, align 8
  %31 = icmp ne i32 %30, 1
  br i1 %31, label %32, label %33

32:                                               ; preds = %27
  store i64 -1, ptr %4, align 8
  br label %40

33:                                               ; preds = %27
  %34 = load ptr, ptr %3, align 8
  %35 = getelementptr inbounds nuw %struct.WindowAggState, ptr %34, i32 0, i32 8
  %36 = load ptr, ptr %35, align 8
  %37 = call zeroext i1 @tuplestore_in_memory(ptr noundef %36)
  br i1 %37, label %39, label %38

38:                                               ; preds = %33
  store i64 -1, ptr %4, align 8
  br label %39

39:                                               ; preds = %38, %33
  br label %40

40:                                               ; preds = %39, %32
  %41 = load ptr, ptr %3, align 8
  %42 = getelementptr inbounds nuw %struct.PlanState, ptr %41, i32 0, i32 9
  %43 = load ptr, ptr %42, align 8
  store ptr %43, ptr %6, align 8
  %44 = load ptr, ptr %3, align 8
  %45 = getelementptr inbounds nuw %struct.WindowAggState, ptr %44, i32 0, i32 0
  %46 = getelementptr inbounds nuw %struct.ScanState, ptr %45, i32 0, i32 0
  %47 = getelementptr inbounds nuw %struct.PlanState, ptr %46, i32 0, i32 16
  %48 = load ptr, ptr %47, align 8
  %49 = getelementptr inbounds nuw %struct.ExprContext, ptr %48, i32 0, i32 4
  %50 = load ptr, ptr %49, align 8
  %51 = call ptr @MemoryContextSwitchTo(ptr noundef %50)
  store ptr %51, ptr %8, align 8
  br label %52

52:                                               ; preds = %130, %40
  %53 = load ptr, ptr %3, align 8
  %54 = getelementptr inbounds nuw %struct.WindowAggState, ptr %53, i32 0, i32 13
  %55 = load i64, ptr %54, align 8
  %56 = load i64, ptr %4, align 8
  %57 = icmp sle i64 %55, %56
  br i1 %57, label %61, label %58

58:                                               ; preds = %52
  %59 = load i64, ptr %4, align 8
  %60 = icmp eq i64 %59, -1
  br label %61

61:                                               ; preds = %58, %52
  %62 = phi i1 [ true, %52 ], [ %60, %58 ]
  br i1 %62, label %63, label %131

63:                                               ; preds = %61
  %64 = load ptr, ptr %6, align 8
  %65 = call ptr @ExecProcNode(ptr noundef %64)
  store ptr %65, ptr %7, align 8
  %66 = load ptr, ptr %7, align 8
  %67 = icmp eq ptr %66, null
  br i1 %67, label %75, label %68

68:                                               ; preds = %63
  %69 = load ptr, ptr %7, align 8
  %70 = getelementptr inbounds nuw %struct.TupleTableSlot, ptr %69, i32 0, i32 1
  %71 = load i16, ptr %70, align 4
  %72 = zext i16 %71 to i32
  %73 = and i32 %72, 2
  %74 = icmp ne i32 %73, 0
  br i1 %74, label %75, label %80

75:                                               ; preds = %68, %63
  %76 = load ptr, ptr %3, align 8
  %77 = getelementptr inbounds nuw %struct.WindowAggState, ptr %76, i32 0, i32 44
  store i8 1, ptr %77, align 1
  %78 = load ptr, ptr %3, align 8
  %79 = getelementptr inbounds nuw %struct.WindowAggState, ptr %78, i32 0, i32 46
  store i8 0, ptr %79, align 1
  br label %131

80:                                               ; preds = %68
  %81 = load ptr, ptr %5, align 8
  %82 = getelementptr inbounds nuw %struct.WindowAgg, ptr %81, i32 0, i32 2
  %83 = load i32, ptr %82, align 4
  %84 = icmp sgt i32 %83, 0
  br i1 %84, label %85, label %116

85:                                               ; preds = %80
  call void @llvm.lifetime.start.p0(i64 8, ptr %10) #8
  %86 = load ptr, ptr %3, align 8
  %87 = getelementptr inbounds nuw %struct.WindowAggState, ptr %86, i32 0, i32 42
  %88 = load ptr, ptr %87, align 8
  store ptr %88, ptr %10, align 8
  %89 = load ptr, ptr %3, align 8
  %90 = getelementptr inbounds nuw %struct.WindowAggState, ptr %89, i32 0, i32 50
  %91 = load ptr, ptr %90, align 8
  %92 = load ptr, ptr %10, align 8
  %93 = getelementptr inbounds nuw %struct.ExprContext, ptr %92, i32 0, i32 2
  store ptr %91, ptr %93, align 8
  %94 = load ptr, ptr %7, align 8
  %95 = load ptr, ptr %10, align 8
  %96 = getelementptr inbounds nuw %struct.ExprContext, ptr %95, i32 0, i32 3
  store ptr %94, ptr %96, align 8
  %97 = load ptr, ptr %3, align 8
  %98 = getelementptr inbounds nuw %struct.WindowAggState, ptr %97, i32 0, i32 6
  %99 = load ptr, ptr %98, align 8
  %100 = load ptr, ptr %10, align 8
  %101 = call zeroext i1 @ExecQualAndReset(ptr noundef %99, ptr noundef %100)
  br i1 %101, label %112, label %102

102:                                              ; preds = %85
  %103 = load ptr, ptr %3, align 8
  %104 = getelementptr inbounds nuw %struct.WindowAggState, ptr %103, i32 0, i32 50
  %105 = load ptr, ptr %104, align 8
  %106 = load ptr, ptr %7, align 8
  %107 = call ptr @ExecCopySlot(ptr noundef %105, ptr noundef %106)
  %108 = load ptr, ptr %3, align 8
  %109 = getelementptr inbounds nuw %struct.WindowAggState, ptr %108, i32 0, i32 44
  store i8 1, ptr %109, align 1
  %110 = load ptr, ptr %3, align 8
  %111 = getelementptr inbounds nuw %struct.WindowAggState, ptr %110, i32 0, i32 46
  store i8 1, ptr %111, align 1
  store i32 3, ptr %9, align 4
  br label %113

112:                                              ; preds = %85
  store i32 0, ptr %9, align 4
  br label %113

113:                                              ; preds = %112, %102
  call void @llvm.lifetime.end.p0(i64 8, ptr %10) #8
  %114 = load i32, ptr %9, align 4
  switch i32 %114, label %137 [
    i32 0, label %115
    i32 3, label %131
  ]

115:                                              ; preds = %113
  br label %116

116:                                              ; preds = %115, %80
  %117 = load ptr, ptr %3, align 8
  %118 = getelementptr inbounds nuw %struct.WindowAggState, ptr %117, i32 0, i32 20
  %119 = load i32, ptr %118, align 8
  %120 = icmp ne i32 %119, 3
  br i1 %120, label %121, label %130

121:                                              ; preds = %116
  %122 = load ptr, ptr %3, align 8
  %123 = getelementptr inbounds nuw %struct.WindowAggState, ptr %122, i32 0, i32 8
  %124 = load ptr, ptr %123, align 8
  %125 = load ptr, ptr %7, align 8
  call void @tuplestore_puttupleslot(ptr noundef %124, ptr noundef %125)
  %126 = load ptr, ptr %3, align 8
  %127 = getelementptr inbounds nuw %struct.WindowAggState, ptr %126, i32 0, i32 13
  %128 = load i64, ptr %127, align 8
  %129 = add i64 %128, 1
  store i64 %129, ptr %127, align 8
  br label %130

130:                                              ; preds = %121, %116
  br label %52, !llvm.loop !17

131:                                              ; preds = %113, %75, %61
  %132 = load ptr, ptr %8, align 8
  %133 = call ptr @MemoryContextSwitchTo(ptr noundef %132)
  store i32 0, ptr %9, align 4
  br label %134

134:                                              ; preds = %131, %26, %20
  call void @llvm.lifetime.end.p0(i64 8, ptr %8) #8
  call void @llvm.lifetime.end.p0(i64 8, ptr %7) #8
  call void @llvm.lifetime.end.p0(i64 8, ptr %6) #8
  call void @llvm.lifetime.end.p0(i64 8, ptr %5) #8
  %135 = load i32, ptr %9, align 4
  switch i32 %135, label %137 [
    i32 0, label %136
    i32 1, label %136
  ]

136:                                              ; preds = %134, %134
  ret void

137:                                              ; preds = %134, %113
  unreachable
}