; Function Attrs: nounwind uwtable
define internal fastcc void @spool_tuples(ptr noundef captures(none) %0, i64 noundef %1) unnamed_addr #0 {
  %3 = alloca i8, align 1
  %4 = getelementptr inbounds nuw i8, ptr %0, i64 8
  %5 = load ptr, ptr %4, align 8
  %6 = getelementptr inbounds nuw i8, ptr %0, i64 272
  %7 = load ptr, ptr %6, align 8
  %.not = icmp eq ptr %7, null
  br i1 %.not, label %81, label %8

8:                                                ; preds = %2
  %9 = getelementptr inbounds nuw i8, ptr %0, i64 577
  %10 = load i8, ptr %9, align 1, !range !4, !noundef !5
  %11 = trunc nuw i8 %10 to i1
  br i1 %11, label %81, label %12

12:                                               ; preds = %8
  %13 = getelementptr inbounds nuw i8, ptr %0, i64 352
  %14 = load i32, ptr %13, align 8
  %.not35 = icmp eq i32 %14, 1
  br i1 %.not35, label %15, label %17

15:                                               ; preds = %12
  %16 = tail call zeroext i1 @tuplestore_in_memory(ptr noundef nonnull %7) #9
  %spec.select = select i1 %16, i64 %1, i64 -1
  br label %17

17:                                               ; preds = %15, %12
  %.0 = phi i64 [ -1, %12 ], [ %spec.select, %15 ]
  %18 = getelementptr inbounds nuw i8, ptr %0, i64 72
  %19 = load ptr, ptr %18, align 8
  %20 = getelementptr inbounds nuw i8, ptr %0, i64 128
  %21 = load ptr, ptr %20, align 8
  %22 = getelementptr inbounds nuw i8, ptr %21, i64 32
  %23 = load ptr, ptr %22, align 8
  %24 = load ptr, ptr @CurrentMemoryContext, align 8
  store ptr %23, ptr @CurrentMemoryContext, align 8
  %25 = getelementptr inbounds nuw i8, ptr %0, i64 296
  %26 = icmp eq i64 %.0, -1
  %27 = load i64, ptr %25, align 8
  %28 = icmp sle i64 %27, %.0
  %29 = or i1 %26, %28
  br i1 %29, label %.lr.ph, label %.loopexit

.lr.ph:                                           ; preds = %17
  %30 = getelementptr inbounds nuw i8, ptr %19, i64 104
  %31 = getelementptr inbounds nuw i8, ptr %19, i64 24
  %32 = getelementptr inbounds nuw i8, ptr %5, i64 108
  %33 = getelementptr inbounds nuw i8, ptr %0, i64 568
  %34 = getelementptr inbounds nuw i8, ptr %0, i64 584
  %35 = getelementptr inbounds nuw i8, ptr %0, i64 256
  br label %36

36:                                               ; preds = %.lr.ph, %76
  %37 = load ptr, ptr %30, align 8
  %.not.i = icmp eq ptr %37, null
  br i1 %.not.i, label %ExecProcNode.exit, label %38

38:                                               ; preds = %36
  call void @ExecReScan(ptr noundef nonnull %19) #9
  br label %ExecProcNode.exit

ExecProcNode.exit:                                ; preds = %36, %38
  %39 = load ptr, ptr %31, align 8
  %40 = call ptr %39(ptr noundef nonnull %19) #9
  %41 = icmp eq ptr %40, null
  br i1 %41, label %.loopexit.sink.split, label %42

42:                                               ; preds = %ExecProcNode.exit
  %43 = getelementptr inbounds nuw i8, ptr %40, i64 4
  %44 = load i16, ptr %43, align 4
  %45 = and i16 %44, 2
  %.not36 = icmp eq i16 %45, 0
  br i1 %.not36, label %46, label %.loopexit.sink.split

46:                                               ; preds = %42
  %47 = load i32, ptr %32, align 4
  %48 = icmp sgt i32 %47, 0
  br i1 %48, label %49, label %.thread

49:                                               ; preds = %46
  %50 = load ptr, ptr %33, align 8
  %51 = load ptr, ptr %34, align 8
  %52 = getelementptr inbounds nuw i8, ptr %50, i64 16
  store ptr %51, ptr %52, align 8
  %53 = getelementptr inbounds nuw i8, ptr %50, i64 24
  store ptr %40, ptr %53, align 8
  %54 = load ptr, ptr %35, align 8
  call void @llvm.lifetime.start.p0(i64 1, ptr nonnull %3) #9
  %55 = icmp eq ptr %54, null
  br i1 %55, label %ExecQualAndReset.exit.thread, label %ExecQualAndReset.exit

ExecQualAndReset.exit.thread:                     ; preds = %49
  call void @llvm.lifetime.end.p0(i64 1, ptr nonnull %3) #9
  %56 = getelementptr inbounds nuw i8, ptr %50, i64 40
  %57 = load ptr, ptr %56, align 8
  call void @MemoryContextReset(ptr noundef %57) #9
  br label %.thread

ExecQualAndReset.exit:                            ; preds = %49
  %58 = getelementptr inbounds nuw i8, ptr %50, i64 40
  %59 = load ptr, ptr %58, align 8
  %60 = load ptr, ptr @CurrentMemoryContext, align 8
  store ptr %59, ptr @CurrentMemoryContext, align 8
  %61 = getelementptr inbounds nuw i8, ptr %54, i64 32
  %62 = load ptr, ptr %61, align 8
  %63 = call i64 %62(ptr noundef nonnull %54, ptr noundef nonnull %50, ptr noundef nonnull %3) #9
  store ptr %60, ptr @CurrentMemoryContext, align 8
  %.not41 = icmp eq i64 %63, 0
  call void @llvm.lifetime.end.p0(i64 1, ptr nonnull %3) #9
  %64 = load ptr, ptr %58, align 8
  call void @MemoryContextReset(ptr noundef %64) #9
  br i1 %.not41, label %65, label %.thread

65:                                               ; preds = %ExecQualAndReset.exit
  %66 = load ptr, ptr %34, align 8
  %67 = getelementptr inbounds nuw i8, ptr %66, i64 8
  %68 = load ptr, ptr %67, align 8
  %69 = getelementptr inbounds nuw i8, ptr %68, i64 64
  %70 = load ptr, ptr %69, align 8
  call void %70(ptr noundef %66, ptr noundef nonnull %40) #9
  br label %.loopexit.sink.split

.thread:                                          ; preds = %ExecQualAndReset.exit.thread, %ExecQualAndReset.exit, %46
  %71 = load i32, ptr %13, align 8
  %.not37 = icmp eq i32 %71, 3
  br i1 %.not37, label %.thread._crit_edge, label %72

.thread._crit_edge:                               ; preds = %.thread
  %.pre = load i64, ptr %25, align 8
  br label %76

72:                                               ; preds = %.thread
  %73 = load ptr, ptr %6, align 8
  call void @tuplestore_puttupleslot(ptr noundef %73, ptr noundef nonnull %40) #9
  %74 = load i64, ptr %25, align 8
  %75 = add i64 %74, 1
  store i64 %75, ptr %25, align 8
  br label %76

76:                                               ; preds = %.thread._crit_edge, %72
  %77 = phi i64 [ %.pre, %.thread._crit_edge ], [ %75, %72 ]
  %78 = icmp sle i64 %77, %.0
  %79 = or i1 %26, %78
  br i1 %79, label %36, label %.loopexit, !llvm.loop !26

.loopexit.sink.split:                             ; preds = %ExecProcNode.exit, %42, %65
  %.sink = phi i8 [ 1, %65 ], [ 0, %42 ], [ 0, %ExecProcNode.exit ]
  store i8 1, ptr %9, align 1
  %80 = getelementptr inbounds nuw i8, ptr %0, i64 579
  store i8 %.sink, ptr %80, align 1
  br label %.loopexit

.loopexit:                                        ; preds = %76, %.loopexit.sink.split, %17
  store ptr %24, ptr @CurrentMemoryContext, align 8
  br label %81

81:                                               ; preds = %8, %2, %.loopexit
  ret void
}